target datalayout = "e-m:e-p270:32:32-p271:32:32-p272:64:64-i64:64-i128:128-f80:128-n8:16:32:64-S128"
target triple = "x86_64-pc-linux-gnu"

%struct.opj_bio = type { ptr, ptr, ptr, i32, i32 }

; Function Attrs: nounwind uwtable
define internal i32 @opj_bio_bytein(ptr noundef %0) #0 {
  %2 = alloca i32, align 4
  %3 = alloca ptr, align 8
  store ptr %0, ptr %3, align 8, !tbaa !3
  %4 = load ptr, ptr %3, align 8, !tbaa !3
  %5 = getelementptr inbounds nuw %struct.opj_bio, ptr %4, i32 0, i32 3
  %6 = load i32, ptr %5, align 8, !tbaa !16
  %7 = shl i32 %6, 8
  %8 = and i32 %7, 65535
  %9 = load ptr, ptr %3, align 8, !tbaa !3
  %10 = getelementptr inbounds nuw %struct.opj_bio, ptr %9, i32 0, i32 3
  store i32 %8, ptr %10, align 8, !tbaa !16
  %11 = load ptr, ptr %3, align 8, !tbaa !3
  %12 = getelementptr inbounds nuw %struct.opj_bio, ptr %11, i32 0, i32 3
  %13 = load i32, ptr %12, align 8, !tbaa !16
  %14 = icmp eq i32 %13, 65280
  %15 = select i1 %14, i32 7, i32 8
  %16 = load ptr, ptr %3, align 8, !tbaa !3
  %17 = getelementptr inbounds nuw %struct.opj_bio, ptr %16, i32 0, i32 4
  store i32 %15, ptr %17, align 4, !tbaa !17
  %18 = load ptr, ptr %3, align 8, !tbaa !3
  %19 = getelementptr inbounds nuw %struct.opj_bio, ptr %18, i32 0, i32 2
  %20 = load ptr, ptr %19, align 8, !tbaa !8
  %21 = ptrtoint ptr %20 to i64
  %22 = load ptr, ptr %3, align 8, !tbaa !3
  %23 = getelementptr inbounds nuw %struct.opj_bio, ptr %22, i32 0, i32 1
  %24 = load ptr, ptr %23, align 8, !tbaa !15
  %25 = ptrtoint ptr %24 to i64
  %26 = icmp uge i64 %21, %25
  br i1 %26, label %27, label %28

27:                                               ; preds = %1
  store i32 0, ptr %2, align 4
  br label %39

28:                                               ; preds = %1
  %29 = load ptr, ptr %3, align 8, !tbaa !3
  %30 = getelementptr inbounds nuw %struct.opj_bio, ptr %29, i32 0, i32 2
  %31 = load ptr, ptr %30, align 8, !tbaa !8
  %32 = getelementptr inbounds nuw i8, ptr %31, i32 1
  store ptr %32, ptr %30, align 8, !tbaa !8
  %33 = load i8, ptr %31, align 1, !tbaa !18
  %34 = zext i8 %33 to i32
  %35 = load ptr, ptr %3, align 8, !tbaa !3
  %36 = getelementptr inbounds nuw %struct.opj_bio, ptr %35, i32 0, i32 3
  %37 = load i32, ptr %36, align 8, !tbaa !16
  %38 = or i32 %37, %34
  store i32 %38, ptr %36, align 8, !tbaa !16
  store i32 1, ptr %2, align 4
  br label %39

39:                                               ; preds = %28, %27
  %40 = load i32, ptr %2, align 4
  ret i32 %40
}

; Function Attrs: nounwind uwtable
define internal i32 @opj_bio_getbit(ptr noundef %0) #0 {
  %2 = alloca ptr, align 8
  store ptr %0, ptr %2, align 8, !tbaa !3
  %3 = load ptr, ptr %2, align 8, !tbaa !3
  %4 = getelementptr inbounds nuw %struct.opj_bio, ptr %3, i32 0, i32 4
  %5 = load i32, ptr %4, align 4, !tbaa !17
  %6 = icmp eq i32 %5, 0
  br i1 %6, label %7, label %10

7:                                                ; preds = %1
  %8 = load ptr, ptr %2, align 8, !tbaa !3
  %9 = call i32 @opj_bio_bytein(ptr noundef %8)
  br label %10

10:                                               ; preds = %7, %1
  %11 = load ptr, ptr %2, align 8, !tbaa !3
  %12 = getelementptr inbounds nuw %struct.opj_bio, ptr %11, i32 0, i32 4
  %13 = load i32, ptr %12, align 4, !tbaa !17
  %14 = add i32 %13, -1
  store i32 %14, ptr %12, align 4, !tbaa !17
  %15 = load ptr, ptr %2, align 8, !tbaa !3
  %16 = getelementptr inbounds nuw %struct.opj_bio, ptr %15, i32 0, i32 3
  %17 = load i32, ptr %16, align 8, !tbaa !16
  %18 = load ptr, ptr %2, align 8, !tbaa !3
  %19 = getelementptr inbounds nuw %struct.opj_bio, ptr %18, i32 0, i32 4
  %20 = load i32, ptr %19, align 4, !tbaa !17
  %21 = lshr i32 %17, %20
  %22 = and i32 %21, 1
  ret i32 %22
}

; Function Attrs: nounwind uwtable
define hidden i32 @opj_bio_read(ptr noundef %0, i32 noundef %1) #0 {
  %3 = alloca ptr, align 8
  %4 = alloca i32, align 4
  %5 = alloca i32, align 4
  %6 = alloca i32, align 4
  store ptr %0, ptr %3, align 8, !tbaa !3
  store i32 %1, ptr %4, align 4, !tbaa !14
  call void @llvm.lifetime.start.p0(i64 4, ptr %5) #3
  call void @llvm.lifetime.start.p0(i64 4, ptr %6) #3
  store i32 0, ptr %6, align 4, !tbaa !14
  %7 = load i32, ptr %4, align 4, !tbaa !14
  %8 = sub nsw i32 %7, 1
  store i32 %8, ptr %5, align 4, !tbaa !14
  br label %9

9:                                                ; preds = %19, %2
  %10 = load i32, ptr %5, align 4, !tbaa !14
  %11 = icmp sge i32 %10, 0
  br i1 %11, label %12, label %22

12:                                               ; preds = %9
  %13 = load ptr, ptr %3, align 8, !tbaa !3
  %14 = call i32 @opj_bio_getbit(ptr noundef %13)
  %15 = load i32, ptr %5, align 4, !tbaa !14
  %16 = shl i32 %14, %15
  %17 = load i32, ptr %6, align 4, !tbaa !14
  %18 = or i32 %17, %16
  store i32 %18, ptr %6, align 4, !tbaa !14
  br label %19

19:                                               ; preds = %12
  %20 = load i32, ptr %5, align 4, !tbaa !14
  %21 = add nsw i32 %20, -1
  store i32 %21, ptr %5, align 4, !tbaa !14
  br label %9, !llvm.loop !21

22:                                               ; preds = %9
  %23 = load i32, ptr %6, align 4, !tbaa !14
  call void @llvm.lifetime.end.p0(i64 4, ptr %6) #3
  call void @llvm.lifetime.end.p0(i64 4, ptr %5) #3
  ret i32 %23
}