; Function Attrs: nofree norecurse nosync nounwind memory(read, argmem: readwrite, inaccessiblemem: none) uwtable
define hidden i32 @opj_bio_read(ptr noundef captures(none) %0, i32 noundef %1) local_unnamed_addr #6 {
  %3 = icmp sgt i32 %1, 0
  br i1 %3, label %.lr.ph, label %._crit_edge

.lr.ph:                                           ; preds = %2
  %4 = getelementptr inbounds nuw i8, ptr %0, i64 28
  %5 = getelementptr inbounds nuw i8, ptr %0, i64 24
  %6 = getelementptr inbounds nuw i8, ptr %0, i64 16
  %7 = getelementptr inbounds nuw i8, ptr %0, i64 8
  %.promoted = load i32, ptr %4, align 4, !tbaa !13
  %.promoted9 = load i32, ptr %5, align 8, !tbaa !12
  br label %8

8:                                                ; preds = %.lr.ph, %opj_bio_getbit.exit
  %9 = phi i32 [ %.promoted9, %.lr.ph ], [ %24, %opj_bio_getbit.exit ]
  %10 = phi i32 [ %.promoted, %.lr.ph ], [ %26, %opj_bio_getbit.exit ]
  %.08 = phi i32 [ 0, %.lr.ph ], [ %30, %opj_bio_getbit.exit ]
  %.06.in7 = phi i32 [ %1, %.lr.ph ], [ %.06, %opj_bio_getbit.exit ]
  %.06 = add nsw i32 %.06.in7, -1
  %11 = icmp eq i32 %10, 0
  br i1 %11, label %12, label %opj_bio_getbit.exit

12:                                               ; preds = %8
  %13 = shl i32 %9, 8
  %14 = and i32 %13, 65280
  store i32 %14, ptr %5, align 8, !tbaa !12
  %15 = icmp eq i32 %14, 65280
  %16 = select i1 %15, i32 7, i32 8
  store i32 %16, ptr %4, align 4, !tbaa !13
  %17 = load ptr, ptr %6, align 8, !tbaa !3
  %18 = load ptr, ptr %7, align 8, !tbaa !11
  %.not.i.i = icmp ult ptr %17, %18
  br i1 %.not.i.i, label %19, label %opj_bio_getbit.exit

19:                                               ; preds = %12
  %20 = getelementptr inbounds nuw i8, ptr %17, i64 1
  store ptr %20, ptr %6, align 8, !tbaa !3
  %21 = load i8, ptr %17, align 1, !tbaa !14
  %22 = zext i8 %21 to i32
  %23 = or disjoint i32 %14, %22
  store i32 %23, ptr %5, align 8, !tbaa !12
  br label %opj_bio_getbit.exit

opj_bio_getbit.exit:                              ; preds = %8, %12, %19
  %24 = phi i32 [ %23, %19 ], [ %14, %12 ], [ %9, %8 ]
  %25 = phi i32 [ %16, %19 ], [ %16, %12 ], [ %10, %8 ]
  %26 = add i32 %25, -1
  store i32 %26, ptr %4, align 4, !tbaa !13
  %27 = lshr i32 %24, %26
  %28 = and i32 %27, 1
  %29 = shl nuw i32 %28, %.06
  %30 = or i32 %29, %.08
  %31 = icmp samesign ugt i32 %.06.in7, 1
  br i1 %31, label %8, label %._crit_edge, !llvm.loop !17

._crit_edge:                                      ; preds = %opj_bio_getbit.exit, %2
  %.0.lcssa = phi i32 [ 0, %2 ], [ %30, %opj_bio_getbit.exit ]
  ret i32 %.0.lcssa
}